; Function Attrs: nounwind uwtable
define dso_local i64 @json_recv(ptr noundef readonly captures(none) %0) local_unnamed_addr #0 {
  %2 = alloca i32, align 4
  %3 = alloca %struct.JsonLexContext, align 8
  %4 = getelementptr inbounds nuw i8, ptr %0, i64 32
  %5 = load i64, ptr %4, align 8
  %6 = inttoptr i64 %5 to ptr
  call void @llvm.lifetime.start.p0(i64 4, ptr nonnull %2) #10
  call void @llvm.lifetime.start.p0(i64 120, ptr nonnull %3) #10
  %7 = getelementptr inbounds nuw i8, ptr %6, i64 8
  %8 = load i32, ptr %7, align 8
  %9 = getelementptr inbounds nuw i8, ptr %6, i64 16
  %10 = load i32, ptr %9, align 8
  %11 = sub i32 %8, %10
  %12 = call ptr @pq_getmsgtext(ptr noundef %6, i32 noundef %11, ptr noundef nonnull %2) #10
  %13 = load i32, ptr %2, align 4
  %14 = sext i32 %13 to i64
  %15 = call i32 @GetDatabaseEncoding() #10
  %16 = call ptr @makeJsonLexContextCstringLen(ptr noundef nonnull %3, ptr noundef %12, i64 noundef %14, i32 noundef %15, i1 noundef zeroext false) #10
  %17 = call zeroext i1 @pg_parse_json_or_errsave(ptr noundef nonnull %3, ptr noundef nonnull @nullSemAction, ptr noundef null) #10
  %18 = load i32, ptr %2, align 4
  %19 = call ptr @cstring_to_text_with_len(ptr noundef %12, i32 noundef %18) #10
  %20 = ptrtoint ptr %19 to i64
  call void @llvm.lifetime.end.p0(i64 120, ptr nonnull %3) #10
  call void @llvm.lifetime.end.p0(i64 4, ptr nonnull %2) #10
  ret i64 %20
}